; Function Attrs: mustprogress nounwind uwtable
define internal void @"_ZN4llvm12function_refIFvPN5clang6driver6ActionEPKNS2_9ToolChainEPKcEE11callback_fnIZNKS2_6Driver25BuildJobsForActionNoCacheERNS2_11CompilationEPKS3_S7_NS_9StringRefEbbS9_RSt3mapISt4pairISH_NSt7__cxx1112basic_stringIcSt11char_traitsIcESaIcEEEENS_11SmallVectorINS2_9InputInfoELj4EEESt4lessISR_ESaISK_IKSR_SU_EEENS3_11OffloadKindEE3$_2EEvlS4_S7_S9_"(i64 noundef %0, ptr noundef %1, ptr noundef %2, ptr noundef %3) #0 align 2 {
  %5 = alloca %"class.llvm::SmallVector.570", align 8
  %6 = alloca %"class.llvm::StringRef", align 8
  %7 = inttoptr i64 %0 to ptr
  call void @llvm.lifetime.start.p0(i64 176, ptr nonnull %5)
  call void @llvm.lifetime.start.p0(i64 16, ptr nonnull %6)
  %8 = getelementptr inbounds nuw i8, ptr %7, i64 8
  %9 = load ptr, ptr %8, align 8
  %10 = load ptr, ptr %7, align 8
  %11 = getelementptr inbounds nuw i8, ptr %7, i64 16
  %12 = load ptr, ptr %11, align 8
  store ptr %3, ptr %6, align 8
  %.not.i.i = icmp eq ptr %3, null
  br i1 %.not.i.i, label %_ZN4llvm9StringRefC2EPKc.exit.i, label %13

13:                                               ; preds = %4
  %14 = tail call noundef i64 @strlen(ptr noundef nonnull dereferenceable(1) %3) #30
  br label %_ZN4llvm9StringRefC2EPKc.exit.i

_ZN4llvm9StringRefC2EPKc.exit.i:                  ; preds = %13, %4
  %15 = phi i64 [ %14, %13 ], [ 0, %4 ]
  %16 = getelementptr inbounds nuw i8, ptr %6, i64 8
  store i64 %15, ptr %16, align 8
  %17 = icmp ne ptr %3, null
  %18 = getelementptr inbounds nuw i8, ptr %7, i64 24
  %19 = load ptr, ptr %18, align 8
  %20 = load ptr, ptr %19, align 8
  %21 = getelementptr inbounds nuw i8, ptr %7, i64 32
  %22 = load ptr, ptr %21, align 8
  %23 = getelementptr inbounds nuw i8, ptr %1, i64 64
  %24 = load i32, ptr %23, align 8
  call void @_ZNK5clang6driver6Driver18BuildJobsForActionERNS0_11CompilationEPKNS0_6ActionEPKNS0_9ToolChainEN4llvm9StringRefEbbPKcRSt3mapISt4pairIS6_NSt7__cxx1112basic_stringIcSt11char_traitsIcESaIcEEEENSA_11SmallVectorINS0_9InputInfoELj4EEESt4lessISM_ESaISF_IKSM_SP_EEENS4_11OffloadKindE(ptr dead_on_unwind nonnull writable sret(%"class.llvm::SmallVector.570") align 8 %5, ptr noundef nonnull align 8 dereferenceable(1192) %9, ptr noundef nonnull align 8 dereferenceable(523) %12, ptr noundef nonnull %1, ptr noundef %2, ptr noundef nonnull byval(%"class.llvm::StringRef") align 8 %6, i1 noundef zeroext false, i1 noundef zeroext %17, ptr noundef %20, ptr noundef nonnull align 8 dereferenceable(48) %22, i32 noundef %24)
  %25 = load ptr, ptr %5, align 8
  %26 = call noundef i64 @_ZNK4llvm15SmallVectorBaseIjE4sizeEv(ptr noundef nonnull align 8 dereferenceable(16) %5) #30
  %27 = getelementptr inbounds %"class.clang::driver::InputInfo", ptr %25, i64 %26
  call void @_ZN4llvm15SmallVectorImplIN5clang6driver9InputInfoEE6appendIPKS3_vEEvT_S8_(ptr noundef nonnull align 8 dereferenceable(16) %10, ptr noundef %25, ptr noundef %27)
  %28 = call noundef i64 @_ZNK4llvm15SmallVectorBaseIjE4sizeEv(ptr noundef nonnull align 8 dereferenceable(16) %5) #30
  %29 = load ptr, ptr %5, align 8
  %30 = getelementptr inbounds i8, ptr %5, i64 16
  %31 = icmp eq ptr %29, %30
  br i1 %31, label %"_ZZNK5clang6driver6Driver25BuildJobsForActionNoCacheERNS0_11CompilationEPKNS0_6ActionEPKNS0_9ToolChainEN4llvm9StringRefEbbPKcRSt3mapISt4pairIS6_NSt7__cxx1112basic_stringIcSt11char_traitsIcESaIcEEEENSA_11SmallVectorINS0_9InputInfoELj4EEESt4lessISM_ESaISF_IKSM_SP_EEENS4_11OffloadKindEENK3$_2clEPS4_S9_SD_.exit", label %32

32:                                               ; preds = %_ZN4llvm9StringRefC2EPKc.exit.i
  call void @free(ptr noundef %29) #30
  br label %"_ZZNK5clang6driver6Driver25BuildJobsForActionNoCacheERNS0_11CompilationEPKNS0_6ActionEPKNS0_9ToolChainEN4llvm9StringRefEbbPKcRSt3mapISt4pairIS6_NSt7__cxx1112basic_stringIcSt11char_traitsIcESaIcEEEENSA_11SmallVectorINS0_9InputInfoELj4EEESt4lessISM_ESaISF_IKSM_SP_EEENS4_11OffloadKindEENK3$_2clEPS4_S9_SD_.exit"

"_ZZNK5clang6driver6Driver25BuildJobsForActionNoCacheERNS0_11CompilationEPKNS0_6ActionEPKNS0_9ToolChainEN4llvm9StringRefEbbPKcRSt3mapISt4pairIS6_NSt7__cxx1112basic_stringIcSt11char_traitsIcESaIcEEEENSA_11SmallVectorINS0_9InputInfoELj4EEESt4lessISM_ESaISF_IKSM_SP_EEENS4_11OffloadKindEENK3$_2clEPS4_S9_SD_.exit": ; preds = %_ZN4llvm9StringRefC2EPKc.exit.i, %32
  call void @llvm.lifetime.end.p0(i64 176, ptr nonnull %5)
  call void @llvm.lifetime.end.p0(i64 16, ptr nonnull %6)
  ret void
}